TN:
SF:/home/syed/808X_week4/TDD_pid_controller/libs/lib1/src.cpp
FN:1,_Z12my_function1i
FNDA:0,_Z12my_function1i
FNF:1
FNH:0
DA:1,0
DA:3,0
LF:2
LH:0
end_of_record
TN:
SF:/home/syed/808X_week4/TDD_pid_controller/libs/lib2/src.cpp
FN:1,_Z12my_function2f
FNDA:0,_Z12my_function2f
FNF:1
FNH:0
DA:1,0
DA:3,0
LF:2
LH:0
end_of_record
TN:
SF:/home/syed/808X_week4/TDD_pid_controller/libs/lib3/pid.cpp
FN:5,_ZN3PID15calculateUpdateEdd
FN:31,_ZN3PID6runPidEdd
FNDA:300,_ZN3PID15calculateUpdateEdd
FNDA:3,_ZN3PID6runPidEdd
FNF:2
FNH:2
DA:5,300
DA:7,300
DA:10,300
DA:13,300
DA:16,300
DA:19,300
DA:20,300
DA:23,300
DA:26,300
DA:28,300
DA:31,3
DA:33,303
DA:35,300
DA:38,3
LF:14
LH:14
end_of_record
TN:
SF:/home/syed/808X_week4/TDD_pid_controller/libs/lib3/pid.hpp
FN:22,_ZN3PIDC2Edddd
FNDA:3,_ZN3PIDC2Edddd
FNF:1
FNH:1
DA:22,3
DA:23,3
DA:24,3
DA:25,3
DA:26,3
DA:27,3
DA:28,3
LF:7
LH:7
end_of_record
TN:
SF:/home/syed/808X_week4/TDD_pid_controller/test/main.cpp
FN:3,main
FNDA:3,main
FNF:1
FNH:1
DA:3,3
DA:4,3
DA:5,3
LF:3
LH:3
end_of_record
TN:
SF:/home/syed/808X_week4/TDD_pid_controller/test/test.cpp
FN:4,_ZN23ComputeMethod_TEST_TestC2Ev
FN:4,_ZN23ComputeMethod_TEST_TestD0Ev
FN:4,_ZN23ComputeMethod_TEST_TestD2Ev
FN:4,_ZN23ComputeMethod_TEST_Test8TestBodyEv
FN:8,_ZN25ComputeMethod1_TEST2_TestD2Ev
FN:8,_ZN25ComputeMethod1_TEST2_Test8TestBodyEv
FN:8,_ZN25ComputeMethod1_TEST2_TestD0Ev
FN:8,_ZN25ComputeMethod1_TEST2_TestC2Ev
FN:12,_ZN25ComputeMethod2_TEST3_Test8TestBodyEv
FN:12,_ZN25ComputeMethod2_TEST3_TestD2Ev
FN:12,_ZN25ComputeMethod2_TEST3_TestC2Ev
FN:12,_ZN25ComputeMethod2_TEST3_TestD0Ev
FNDA:1,_ZN25ComputeMethod2_TEST3_TestD0Ev
FNDA:1,_ZN25ComputeMethod1_TEST2_Test8TestBodyEv
FNDA:1,_ZN25ComputeMethod1_TEST2_TestD0Ev
FNDA:1,_ZN23ComputeMethod_TEST_Test8TestBodyEv
FNDA:1,_ZN23ComputeMethod_TEST_TestD2Ev
FNDA:1,_ZN25ComputeMethod1_TEST2_TestC2Ev
FNDA:1,_ZN25ComputeMethod2_TEST3_Test8TestBodyEv
FNDA:1,_ZN25ComputeMethod2_TEST3_TestD2Ev
FNDA:1,_ZN25ComputeMethod1_TEST2_TestD2Ev
FNDA:1,_ZN25ComputeMethod2_TEST3_TestC2Ev
FNDA:1,_ZN23ComputeMethod_TEST_TestC2Ev
FNDA:1,_ZN23ComputeMethod_TEST_TestD0Ev
FNF:12
FNH:12
DA:4,4
DA:5,1
DA:8,4
DA:9,1
DA:12,4
DA:13,1
LF:6
LH:6
end_of_record
